target datalayout = "e-m:e-p270:32:32-p271:32:32-p272:64:64-i64:64-i128:128-f80:128-n8:16:32:64-S128"
target triple = "x86_64-pc-linux-gnu"

%struct._CvImageWidget = type { %struct._GtkWidget, ptr, ptr, i32 }
%struct._GtkWidget = type { %struct._GObject, ptr }
%struct._GObject = type { %struct._GTypeInstance, i32, ptr }
%struct._GTypeInstance = type { ptr }
%struct._GtkWidgetClass = type { %struct._GObjectClass, i32, ptr, ptr, ptr, ptr, ptr, ptr, ptr, ptr, ptr, ptr, ptr, ptr, ptr, ptr, ptr, ptr, ptr, ptr, ptr, ptr, ptr, ptr, ptr, ptr, ptr, ptr, ptr, ptr, ptr, ptr, ptr, ptr, ptr, ptr, ptr, ptr, ptr, ptr, ptr, ptr, ptr, ptr, ptr, ptr, ptr, ptr, ptr, ptr, ptr, ptr, ptr, ptr, ptr, ptr, ptr, ptr, ptr, ptr, ptr, ptr, ptr, ptr, ptr, ptr, ptr, ptr, ptr, ptr, ptr, ptr, ptr, ptr, ptr, ptr, ptr, ptr, ptr, ptr, ptr, ptr, ptr, ptr, ptr, ptr, ptr }
%struct._GObjectClass = type { %struct._GTypeClass, ptr, ptr, ptr, ptr, ptr, ptr, ptr, ptr, ptr, i64, [6 x ptr] }
%struct._GTypeClass = type { i64 }

@_ZZ22cvImageWidget_get_typevE10image_type = internal global i64 0, align 8
@.str.2 = private unnamed_addr constant [14 x i8] c"CvImageWidget\00", align 1
@_ZL12parent_class = internal global ptr null, align 8
@__PRETTY_FUNCTION__._ZL21cvImageWidget_destroyP10_GtkWidget = private unnamed_addr constant [40 x i8] c"void cvImageWidget_destroy(GtkWidget *)\00", align 1
@.str.18 = private unnamed_addr constant [15 x i8] c"object != NULL\00", align 1
@.str.19 = private unnamed_addr constant [28 x i8] c"CV_IS_IMAGE_WIDGET (object)\00", align 1

; Function Attrs: mustprogress uwtable
define hidden noundef i64 @_Z22cvImageWidget_get_typev() #4 {
  %1 = load i64, ptr @_ZZ22cvImageWidget_get_typevE10image_type, align 8, !tbaa !21
  %2 = icmp ne i64 %1, 0
  br i1 %2, label %6, label %3

3:                                                ; preds = %0
  %4 = call i64 @gtk_widget_get_type() #28
  %5 = call i64 @g_type_register_static_simple(i64 noundef %4, ptr noundef @.str.2, i32 noundef 824, ptr noundef @_ZL24cvImageWidget_class_initPvS_, i32 noundef 56, ptr noundef @_ZL18cvImageWidget_initP14_GTypeInstancePv, i32 noundef 0)
  store i64 %5, ptr @_ZZ22cvImageWidget_get_typevE10image_type, align 8, !tbaa !21
  br label %6

6:                                                ; preds = %3, %0
  %7 = load i64, ptr @_ZZ22cvImageWidget_get_typevE10image_type, align 8, !tbaa !21
  ret i64 %7
}

; Function Attrs: mustprogress uwtable
define internal void @_ZL21cvImageWidget_destroyP10_GtkWidget(ptr noundef %0) #4 {
  %2 = alloca ptr, align 8
  %3 = alloca ptr, align 8
  %4 = alloca i32, align 4
  %5 = alloca i32, align 4
  %6 = alloca i32, align 4
  %7 = alloca i32, align 4
  %8 = alloca ptr, align 8
  %9 = alloca i64, align 8
  %10 = alloca i32, align 4
  %11 = alloca i32, align 4
  %12 = alloca i32, align 4
  store ptr %0, ptr %2, align 8, !tbaa !158
  call void @llvm.lifetime.start.p0(i64 8, ptr %3) #3
  br label %13

13:                                               ; preds = %1
  call void @llvm.lifetime.start.p0(i64 4, ptr %4) #3
  %14 = load ptr, ptr %2, align 8, !tbaa !158
  %15 = icmp ne ptr %14, null
  br i1 %15, label %16, label %17

16:                                               ; preds = %13
  store i32 1, ptr %4, align 4, !tbaa !3
  br label %18

17:                                               ; preds = %13
  store i32 0, ptr %4, align 4, !tbaa !3
  br label %18

18:                                               ; preds = %17, %16
  %19 = load i32, ptr %4, align 4, !tbaa !3
  store i32 %19, ptr %5, align 4, !tbaa !3
  call void @llvm.lifetime.end.p0(i64 4, ptr %4) #3
  %20 = load i32, ptr %5, align 4, !tbaa !3
  %21 = sext i32 %20 to i64
  %22 = call i64 @llvm.expect.i64(i64 %21, i64 1)
  %23 = icmp ne i64 %22, 0
  br i1 %23, label %24, label %25

24:                                               ; preds = %18
  br label %26

25:                                               ; preds = %18
  call void @g_return_if_fail_warning(ptr noundef null, ptr noundef @__PRETTY_FUNCTION__._ZL21cvImageWidget_destroyP10_GtkWidget, ptr noundef @.str.18)
  store i32 1, ptr %6, align 4
  br label %92

26:                                               ; preds = %24
  br label %27

27:                                               ; preds = %26
  br label %28

28:                                               ; preds = %27
  br label %29

29:                                               ; preds = %28
  call void @llvm.lifetime.start.p0(i64 4, ptr %7) #3
  call void @llvm.lifetime.start.p0(i64 8, ptr %8) #3
  %30 = load ptr, ptr %2, align 8, !tbaa !158
  store ptr %30, ptr %8, align 8, !tbaa !49
  call void @llvm.lifetime.start.p0(i64 8, ptr %9) #3
  %31 = call noundef i64 @_Z22cvImageWidget_get_typev()
  store i64 %31, ptr %9, align 8, !tbaa !21
  call void @llvm.lifetime.start.p0(i64 4, ptr %10) #3
  %32 = load ptr, ptr %8, align 8, !tbaa !49
  %33 = icmp ne ptr %32, null
  br i1 %33, label %35, label %34

34:                                               ; preds = %29
  store i32 0, ptr %10, align 4, !tbaa !3
  br label %54

35:                                               ; preds = %29
  %36 = load ptr, ptr %8, align 8, !tbaa !49
  %37 = getelementptr inbounds nuw %struct._GTypeInstance, ptr %36, i32 0, i32 0
  %38 = load ptr, ptr %37, align 8, !tbaa !183
  %39 = icmp ne ptr %38, null
  br i1 %39, label %40, label %49

40:                                               ; preds = %35
  %41 = load ptr, ptr %8, align 8, !tbaa !49
  %42 = getelementptr inbounds nuw %struct._GTypeInstance, ptr %41, i32 0, i32 0
  %43 = load ptr, ptr %42, align 8, !tbaa !183
  %44 = getelementptr inbounds nuw %struct._GTypeClass, ptr %43, i32 0, i32 0
  %45 = load i64, ptr %44, align 8, !tbaa !184
  %46 = load i64, ptr %9, align 8, !tbaa !21
  %47 = icmp eq i64 %45, %46
  br i1 %47, label %48, label %49

48:                                               ; preds = %40
  store i32 1, ptr %10, align 4, !tbaa !3
  br label %53

49:                                               ; preds = %40, %35
  %50 = load ptr, ptr %8, align 8, !tbaa !49
  %51 = load i64, ptr %9, align 8, !tbaa !21
  %52 = call i32 @g_type_check_instance_is_a(ptr noundef %50, i64 noundef %51) #30
  store i32 %52, ptr %10, align 4, !tbaa !3
  br label %53

53:                                               ; preds = %49, %48
  br label %54

54:                                               ; preds = %53, %34
  %55 = load i32, ptr %10, align 4, !tbaa !3
  store i32 %55, ptr %11, align 4, !tbaa !3
  call void @llvm.lifetime.end.p0(i64 4, ptr %10) #3
  call void @llvm.lifetime.end.p0(i64 8, ptr %9) #3
  call void @llvm.lifetime.end.p0(i64 8, ptr %8) #3
  %56 = load i32, ptr %11, align 4, !tbaa !3
  %57 = icmp ne i32 %56, 0
  br i1 %57, label %58, label %59

58:                                               ; preds = %54
  store i32 1, ptr %7, align 4, !tbaa !3
  br label %60

59:                                               ; preds = %54
  store i32 0, ptr %7, align 4, !tbaa !3
  br label %60

60:                                               ; preds = %59, %58
  %61 = load i32, ptr %7, align 4, !tbaa !3
  store i32 %61, ptr %12, align 4, !tbaa !3
  call void @llvm.lifetime.end.p0(i64 4, ptr %7) #3
  %62 = load i32, ptr %12, align 4, !tbaa !3
  %63 = sext i32 %62 to i64
  %64 = call i64 @llvm.expect.i64(i64 %63, i64 1)
  %65 = icmp ne i64 %64, 0
  br i1 %65, label %66, label %67

66:                                               ; preds = %60
  br label %68

67:                                               ; preds = %60
  call void @g_return_if_fail_warning(ptr noundef null, ptr noundef @__PRETTY_FUNCTION__._ZL21cvImageWidget_destroyP10_GtkWidget, ptr noundef @.str.19)
  store i32 1, ptr %6, align 4
  br label %92

68:                                               ; preds = %66
  br label %69

69:                                               ; preds = %68
  br label %70

70:                                               ; preds = %69
  %71 = load ptr, ptr %2, align 8, !tbaa !158
  %72 = call noundef i64 @_Z22cvImageWidget_get_typev()
  %73 = call ptr @g_type_check_instance_cast(ptr noundef %71, i64 noundef %72)
  store ptr %73, ptr %3, align 8, !tbaa !7
  %74 = load ptr, ptr %3, align 8, !tbaa !7
  %75 = getelementptr inbounds nuw %struct._CvImageWidget, ptr %74, i32 0, i32 2
  call void @cvReleaseMat(ptr noundef %75)
  %76 = load ptr, ptr %3, align 8, !tbaa !7
  %77 = getelementptr inbounds nuw %struct._CvImageWidget, ptr %76, i32 0, i32 1
  call void @cvReleaseMat(ptr noundef %77)
  %78 = load ptr, ptr @_ZL12parent_class, align 8, !tbaa !34
  %79 = call i64 @gtk_widget_get_type() #28
  %80 = call ptr @g_type_check_class_cast(ptr noundef %78, i64 noundef %79)
  %81 = getelementptr inbounds nuw %struct._GtkWidgetClass, ptr %80, i32 0, i32 3
  %82 = load ptr, ptr %81, align 8, !tbaa !36
  %83 = icmp ne ptr %82, null
  br i1 %83, label %84, label %91

84:                                               ; preds = %70
  %85 = load ptr, ptr @_ZL12parent_class, align 8, !tbaa !34
  %86 = call i64 @gtk_widget_get_type() #28
  %87 = call ptr @g_type_check_class_cast(ptr noundef %85, i64 noundef %86)
  %88 = getelementptr inbounds nuw %struct._GtkWidgetClass, ptr %87, i32 0, i32 3
  %89 = load ptr, ptr %88, align 8, !tbaa !36
  %90 = load ptr, ptr %2, align 8, !tbaa !158
  call void %89(ptr noundef %90)
  br label %91

91:                                               ; preds = %84, %70
  store i32 0, ptr %6, align 4
  br label %92

92:                                               ; preds = %91, %67, %25
  call void @llvm.lifetime.end.p0(i64 8, ptr %3) #3
  %93 = load i32, ptr %6, align 4
  switch i32 %93, label %95 [
    i32 0, label %94
    i32 1, label %94
  ]

94:                                               ; preds = %92, %92
  ret void

95:                                               ; preds = %92
  unreachable
}