; Function Attrs: mustprogress uwtable
define internal void @_ZL21cvImageWidget_destroyP10_GtkWidget(ptr noundef %0) #3 {
  %.not = icmp eq ptr %0, null
  br i1 %.not, label %2, label %3, !prof !60

2:                                                ; preds = %1
  tail call void @g_return_if_fail_warning(ptr noundef null, ptr noundef nonnull @__PRETTY_FUNCTION__._ZL21cvImageWidget_destroyP10_GtkWidget, ptr noundef nonnull @.str.18)
  br label %34

3:                                                ; preds = %1
  %4 = load i64, ptr @_ZZ22cvImageWidget_get_typevE10image_type, align 8, !tbaa !3
  %.not.i = icmp eq i64 %4, 0
  br i1 %.not.i, label %5, label %_Z22cvImageWidget_get_typev.exit

5:                                                ; preds = %3
  %6 = tail call i64 @gtk_widget_get_type() #30
  %7 = tail call i64 @g_type_register_static_simple(i64 noundef %6, ptr noundef nonnull @.str.2, i32 noundef 824, ptr noundef nonnull @_ZL24cvImageWidget_class_initPvS_, i32 noundef 56, ptr noundef nonnull @_ZL18cvImageWidget_initP14_GTypeInstancePv, i32 noundef 0)
  store i64 %7, ptr @_ZZ22cvImageWidget_get_typevE10image_type, align 8, !tbaa !3
  br label %_Z22cvImageWidget_get_typev.exit

_Z22cvImageWidget_get_typev.exit:                 ; preds = %3, %5
  %8 = phi i64 [ %7, %5 ], [ %4, %3 ]
  %9 = load ptr, ptr %0, align 8, !tbaa !172
  %.not22 = icmp eq ptr %9, null
  br i1 %.not22, label %13, label %10

10:                                               ; preds = %_Z22cvImageWidget_get_typev.exit
  %11 = load i64, ptr %9, align 8, !tbaa !173
  %12 = icmp eq i64 %11, %8
  br i1 %12, label %.critedge, label %13

13:                                               ; preds = %10, %_Z22cvImageWidget_get_typev.exit
  %14 = tail call i32 @g_type_check_instance_is_a(ptr noundef nonnull %0, i64 noundef %8) #36
  %15 = icmp eq i32 %14, 0
  br i1 %15, label %16, label %.critedge, !prof !60

16:                                               ; preds = %13
  tail call void @g_return_if_fail_warning(ptr noundef null, ptr noundef nonnull @__PRETTY_FUNCTION__._ZL21cvImageWidget_destroyP10_GtkWidget, ptr noundef nonnull @.str.19)
  br label %34

.critedge:                                        ; preds = %10, %13
  %.not.i26 = icmp eq i64 %8, 0
  br i1 %.not.i26, label %17, label %_Z22cvImageWidget_get_typev.exit27

17:                                               ; preds = %.critedge
  %18 = tail call i64 @gtk_widget_get_type() #30
  %19 = tail call i64 @g_type_register_static_simple(i64 noundef %18, ptr noundef nonnull @.str.2, i32 noundef 824, ptr noundef nonnull @_ZL24cvImageWidget_class_initPvS_, i32 noundef 56, ptr noundef nonnull @_ZL18cvImageWidget_initP14_GTypeInstancePv, i32 noundef 0)
  store i64 %19, ptr @_ZZ22cvImageWidget_get_typevE10image_type, align 8, !tbaa !3
  br label %_Z22cvImageWidget_get_typev.exit27

_Z22cvImageWidget_get_typev.exit27:               ; preds = %.critedge, %17
  %20 = phi i64 [ %19, %17 ], [ %8, %.critedge ]
  %21 = tail call ptr @g_type_check_instance_cast(ptr noundef nonnull %0, i64 noundef %20)
  %22 = getelementptr inbounds nuw i8, ptr %21, i64 40
  tail call void @cvReleaseMat(ptr noundef nonnull %22)
  %23 = getelementptr inbounds nuw i8, ptr %21, i64 32
  tail call void @cvReleaseMat(ptr noundef nonnull %23)
  %24 = load ptr, ptr @_ZL12parent_class, align 8, !tbaa !23
  %25 = tail call i64 @gtk_widget_get_type() #30
  %26 = tail call ptr @g_type_check_class_cast(ptr noundef %24, i64 noundef %25)
  %27 = getelementptr inbounds nuw i8, ptr %26, i64 152
  %28 = load ptr, ptr %27, align 8, !tbaa !25
  %.not25 = icmp eq ptr %28, null
  br i1 %.not25, label %34, label %29

29:                                               ; preds = %_Z22cvImageWidget_get_typev.exit27
  %30 = load ptr, ptr @_ZL12parent_class, align 8, !tbaa !23
  %31 = tail call ptr @g_type_check_class_cast(ptr noundef %30, i64 noundef %25)
  %32 = getelementptr inbounds nuw i8, ptr %31, i64 152
  %33 = load ptr, ptr %32, align 8, !tbaa !25
  tail call void %33(ptr noundef nonnull %0)
  br label %34

34:                                               ; preds = %_Z22cvImageWidget_get_typev.exit27, %29, %16, %2
  ret void
}